; Function Attrs: mustprogress uwtable
define void @_ZNK6casadi10ZeroByZero11get_reshapeERKNS_8SparsityE(ptr dead_on_unwind noalias writable sret(%"class.casadi::MX") align 8 %0, ptr nocapture nonnull readnone align 8 %1, ptr noundef nonnull align 8 dereferenceable(8) %2) unnamed_addr #3 align 2 personality ptr @__gxx_personality_v0 {
  %4 = alloca %"class.std::__cxx11::basic_string", align 8
  %5 = alloca %"class.std::__cxx11::basic_string", align 8
  %6 = alloca %"class.std::__cxx11::basic_string", align 8
  %7 = alloca %"class.std::__cxx11::basic_string", align 8
  %8 = alloca %"class.std::allocator.8", align 1
  %9 = alloca %"class.std::__cxx11::basic_string", align 8
  %10 = alloca %"class.std::__cxx11::basic_string", align 8
  %11 = alloca %"class.std::__cxx11::basic_string", align 8
  %12 = alloca %"class.std::allocator.8", align 1
  %13 = alloca %"class.std::vector.11", align 8
  %14 = tail call noundef zeroext i1 @_ZNK6casadi8Sparsity8is_emptyEb(ptr noundef nonnull align 8 dereferenceable(8) %2, i1 noundef zeroext false)
  br i1 %14, label %49, label %15

15:                                               ; preds = %3
  %16 = tail call ptr @__cxa_allocate_exception(i64 40) #25
  call void @_ZNSaIcEC1Ev(ptr noundef nonnull align 1 dereferenceable(1) %8) #25
  invoke void @_ZNSt7__cxx1112basic_stringIcSt11char_traitsIcESaIcEEC2IS3_EEPKcRKS3_(ptr noundef nonnull align 8 dereferenceable(32) %7, ptr noundef nonnull @.str.9, ptr noundef nonnull align 1 dereferenceable(1) %8)
          to label %17 unwind label %.thread

17:                                               ; preds = %15
  invoke void @_ZN6casadi9trim_pathERKNSt7__cxx1112basic_stringIcSt11char_traitsIcESaIcEEE(ptr dead_on_unwind nonnull writable sret(%"class.std::__cxx11::basic_string") align 8 %6, ptr noundef nonnull align 8 dereferenceable(32) %7)
          to label %18 unwind label %28

18:                                               ; preds = %17
  %19 = invoke noundef nonnull align 8 dereferenceable(32) ptr @_ZNSt7__cxx1112basic_stringIcSt11char_traitsIcESaIcEE6appendEPKc(ptr noundef nonnull align 8 dereferenceable(32) %6, ptr noundef nonnull @.str.1)
          to label %20 unwind label %30

20:                                               ; preds = %18
  call void @_ZNSt7__cxx1112basic_stringIcSt11char_traitsIcESaIcEEC1EOS4_(ptr noundef nonnull align 8 dereferenceable(32) %5, ptr noundef nonnull align 8 dereferenceable(32) %19) #25
  call void @_ZNSaIcEC1Ev(ptr noundef nonnull align 1 dereferenceable(1) %12) #25
  invoke void @_ZNSt7__cxx1112basic_stringIcSt11char_traitsIcESaIcEEC2IS3_EEPKcRKS3_(ptr noundef nonnull align 8 dereferenceable(32) %11, ptr noundef nonnull @.str.8, ptr noundef nonnull align 1 dereferenceable(1) %12)
          to label %21 unwind label %32

21:                                               ; preds = %20
  %22 = invoke noundef nonnull align 8 dereferenceable(32) ptr @_ZNSt7__cxx1112basic_stringIcSt11char_traitsIcESaIcEE6insertEmPKc(ptr noundef nonnull align 8 dereferenceable(32) %11, i64 noundef 0, ptr noundef nonnull @.str.10)
          to label %23 unwind label %34

23:                                               ; preds = %21
  call void @_ZNSt7__cxx1112basic_stringIcSt11char_traitsIcESaIcEEC1EOS4_(ptr noundef nonnull align 8 dereferenceable(32) %10, ptr noundef nonnull align 8 dereferenceable(32) %22) #25
  call void @llvm.memset.p0.i64(ptr noundef nonnull align 8 dereferenceable(24) %13, i8 0, i64 24, i1 false), !alias.scope !21
  invoke void @_ZN6casadi6fmtstrERKNSt7__cxx1112basic_stringIcSt11char_traitsIcESaIcEEERKSt6vectorIS5_SaIS5_EE(ptr dead_on_unwind nonnull writable sret(%"class.std::__cxx11::basic_string") align 8 %9, ptr noundef nonnull align 8 dereferenceable(32) %10, ptr noundef nonnull align 8 dereferenceable(24) %13)
          to label %24 unwind label %36

24:                                               ; preds = %23
  invoke void @_ZStplIcSt11char_traitsIcESaIcEENSt7__cxx1112basic_stringIT_T0_T1_EEOS8_S9_(ptr dead_on_unwind nonnull writable sret(%"class.std::__cxx11::basic_string") align 8 %4, ptr noundef nonnull align 8 dereferenceable(32) %5, ptr noundef nonnull align 8 dereferenceable(32) %9)
          to label %25 unwind label %38

25:                                               ; preds = %24
  invoke void @_ZN6casadi15CasadiExceptionC2ERKNSt7__cxx1112basic_stringIcSt11char_traitsIcESaIcEEE(ptr noundef nonnull align 8 dereferenceable(40) %16, ptr noundef nonnull align 8 dereferenceable(32) %4)
          to label %26 unwind label %40

26:                                               ; preds = %25
  invoke void @__cxa_throw(ptr nonnull %16, ptr nonnull @_ZTIN6casadi15CasadiExceptionE, ptr nonnull @_ZN6casadi15CasadiExceptionD2Ev) #27
          to label %51 unwind label %40

.thread:                                          ; preds = %15
  %27 = landingpad { ptr, i32 }
          cleanup
  call void @_ZNSaIcED1Ev(ptr noundef nonnull align 1 dereferenceable(1) %8) #25
  br label %48

28:                                               ; preds = %17
  %29 = landingpad { ptr, i32 }
          cleanup
  br label %47

30:                                               ; preds = %18
  %31 = landingpad { ptr, i32 }
          cleanup
  br label %46

32:                                               ; preds = %20
  %33 = landingpad { ptr, i32 }
          cleanup
  br label %45

34:                                               ; preds = %21
  %35 = landingpad { ptr, i32 }
          cleanup
  br label %44

36:                                               ; preds = %23
  %37 = landingpad { ptr, i32 }
          cleanup
  br label %43

38:                                               ; preds = %24
  %39 = landingpad { ptr, i32 }
          cleanup
  br label %42

40:                                               ; preds = %26, %25
  %.0 = phi i1 [ false, %26 ], [ true, %25 ]
  %41 = landingpad { ptr, i32 }
          cleanup
  call void @_ZNSt7__cxx1112basic_stringIcSt11char_traitsIcESaIcEED1Ev(ptr noundef nonnull align 8 dereferenceable(32) %4) #25
  br label %42

42:                                               ; preds = %40, %38
  %.pn = phi { ptr, i32 } [ %41, %40 ], [ %39, %38 ]
  %.1 = phi i1 [ %.0, %40 ], [ true, %38 ]
  call void @_ZNSt7__cxx1112basic_stringIcSt11char_traitsIcESaIcEED1Ev(ptr noundef nonnull align 8 dereferenceable(32) %9) #25
  br label %43

43:                                               ; preds = %42, %36
  %.pn.pn = phi { ptr, i32 } [ %.pn, %42 ], [ %37, %36 ]
  %.2 = phi i1 [ %.1, %42 ], [ true, %36 ]
  call void @_ZNSt6vectorINSt7__cxx1112basic_stringIcSt11char_traitsIcESaIcEEESaIS5_EED2Ev(ptr noundef nonnull align 8 dereferenceable(24) %13) #25
  call void @_ZNSt7__cxx1112basic_stringIcSt11char_traitsIcESaIcEED1Ev(ptr noundef nonnull align 8 dereferenceable(32) %10) #25
  br label %44

44:                                               ; preds = %43, %34
  %.pn.pn.pn = phi { ptr, i32 } [ %.pn.pn, %43 ], [ %35, %34 ]
  %.3 = phi i1 [ %.2, %43 ], [ true, %34 ]
  call void @_ZNSt7__cxx1112basic_stringIcSt11char_traitsIcESaIcEED1Ev(ptr noundef nonnull align 8 dereferenceable(32) %11) #25
  br label %45

45:                                               ; preds = %44, %32
  %.pn.pn.pn.pn = phi { ptr, i32 } [ %.pn.pn.pn, %44 ], [ %33, %32 ]
  %.4 = phi i1 [ %.3, %44 ], [ true, %32 ]
  call void @_ZNSaIcED1Ev(ptr noundef nonnull align 1 dereferenceable(1) %12) #25
  call void @_ZNSt7__cxx1112basic_stringIcSt11char_traitsIcESaIcEED1Ev(ptr noundef nonnull align 8 dereferenceable(32) %5) #25
  br label %46

46:                                               ; preds = %45, %30
  %.pn.pn.pn.pn.pn = phi { ptr, i32 } [ %.pn.pn.pn.pn, %45 ], [ %31, %30 ]
  %.5 = phi i1 [ %.4, %45 ], [ true, %30 ]
  call void @_ZNSt7__cxx1112basic_stringIcSt11char_traitsIcESaIcEED1Ev(ptr noundef nonnull align 8 dereferenceable(32) %6) #25
  br label %47

47:                                               ; preds = %28, %46
  %.pn.pn.pn.pn.pn.pn = phi { ptr, i32 } [ %.pn.pn.pn.pn.pn, %46 ], [ %29, %28 ]
  %.6 = phi i1 [ %.5, %46 ], [ true, %28 ]
  call void @_ZNSt7__cxx1112basic_stringIcSt11char_traitsIcESaIcEED1Ev(ptr noundef nonnull align 8 dereferenceable(32) %7) #25
  call void @_ZNSaIcED1Ev(ptr noundef nonnull align 1 dereferenceable(1) %8) #25
  br i1 %.6, label %48, label %50

48:                                               ; preds = %.thread, %47
  %.pn.pn.pn.pn.pn.pn.pn28 = phi { ptr, i32 } [ %27, %.thread ], [ %.pn.pn.pn.pn.pn.pn, %47 ]
  call void @__cxa_free_exception(ptr %16) #25
  br label %50

49:                                               ; preds = %3
  tail call void @_ZN6casadi2MXC1ERKNS_8SparsityEdb(ptr noundef nonnull align 8 dereferenceable(8) %0, ptr noundef nonnull align 8 dereferenceable(8) %2, double noundef 0.000000e+00, i1 noundef zeroext false)
  ret void

50:                                               ; preds = %47, %48
  %.pn.pn.pn.pn.pn.pn.pn27 = phi { ptr, i32 } [ %.pn.pn.pn.pn.pn.pn, %47 ], [ %.pn.pn.pn.pn.pn.pn.pn28, %48 ]
  resume { ptr, i32 } %.pn.pn.pn.pn.pn.pn.pn27

51:                                               ; preds = %26
  unreachable
}